; ModuleID = '20/329.c'
source_filename = "20/329.c"
target datalayout = "e-m:e-p270:32:32-p271:32:32-p272:64:64-i64:64-f80:128-n8:16:32:64-S128"
target triple = "x86_64-pc-linux-gnu"

@.str = private unnamed_addr constant [3 x i8] c"%c\00", align 1
@.str.1 = private unnamed_addr constant [2 x i8] c"\0A\00", align 1

; Function Attrs: noinline nounwind uwtable
define dso_local void @main() #0 {
  %1 = alloca [16 x i8], align 16
  %2 = alloca i32, align 4
  %3 = alloca i32, align 4
  %4 = alloca i32, align 4
  %5 = getelementptr inbounds [16 x i8], [16 x i8]* %1, i64 0, i64 15
  store i8 0, i8* %5, align 1
  store i32 15, i32* %4, align 4
  br label %6

6:                                                ; preds = %87, %0
  %7 = getelementptr inbounds [16 x i8], [16 x i8]* %1, i64 0, i64 0
  %8 = call i32 (i8*, ...) bitcast (i32 (...)* @gets to i32 (i8*, ...)*)(i8* %7)
  %9 = icmp ne i32 %8, 0
  br i1 %9, label %10, label %89

10:                                               ; preds = %6
  %11 = getelementptr inbounds [16 x i8], [16 x i8]* %1, i64 0, i64 0
  %12 = call i64 @strlen(i8* %11) #3
  %13 = sub i64 %12, 5
  %14 = trunc i64 %13 to i32
  store i32 %14, i32* %3, align 4
  %15 = load i32, i32* %3, align 4
  store i32 %15, i32* %2, align 4
  br label %16

16:                                               ; preds = %34, %10
  %17 = load i32, i32* %2, align 4
  %18 = icmp sge i32 %17, 0
  br i1 %18, label %19, label %37

19:                                               ; preds = %16
  %20 = load i32, i32* %2, align 4
  %21 = sext i32 %20 to i64
  %22 = getelementptr inbounds [16 x i8], [16 x i8]* %1, i64 0, i64 %21
  %23 = load i8, i8* %22, align 1
  %24 = sext i8 %23 to i32
  %25 = load i32, i32* %4, align 4
  %26 = sext i32 %25 to i64
  %27 = getelementptr inbounds [16 x i8], [16 x i8]* %1, i64 0, i64 %26
  %28 = load i8, i8* %27, align 1
  %29 = sext i8 %28 to i32
  %30 = icmp sge i32 %24, %29
  br i1 %30, label %31, label %33

31:                                               ; preds = %19
  %32 = load i32, i32* %2, align 4
  store i32 %32, i32* %4, align 4
  br label %33

33:                                               ; preds = %31, %19
  br label %34

34:                                               ; preds = %33
  %35 = load i32, i32* %2, align 4
  %36 = add nsw i32 %35, -1
  store i32 %36, i32* %2, align 4
  br label %16

37:                                               ; preds = %16
  store i32 0, i32* %2, align 4
  br label %38

38:                                               ; preds = %49, %37
  %39 = load i32, i32* %2, align 4
  %40 = load i32, i32* %4, align 4
  %41 = icmp sle i32 %39, %40
  br i1 %41, label %42, label %52

42:                                               ; preds = %38
  %43 = load i32, i32* %2, align 4
  %44 = sext i32 %43 to i64
  %45 = getelementptr inbounds [16 x i8], [16 x i8]* %1, i64 0, i64 %44
  %46 = load i8, i8* %45, align 1
  %47 = sext i8 %46 to i32
  %48 = call i32 (i8*, ...) @printf(i8* getelementptr inbounds ([3 x i8], [3 x i8]* @.str, i64 0, i64 0), i32 %47)
  br label %49

49:                                               ; preds = %42
  %50 = load i32, i32* %2, align 4
  %51 = add nsw i32 %50, 1
  store i32 %51, i32* %2, align 4
  br label %38

52:                                               ; preds = %38
  %53 = load i32, i32* %3, align 4
  %54 = add nsw i32 %53, 2
  store i32 %54, i32* %2, align 4
  br label %55

55:                                               ; preds = %67, %52
  %56 = load i32, i32* %2, align 4
  %57 = load i32, i32* %3, align 4
  %58 = add nsw i32 %57, 4
  %59 = icmp sle i32 %56, %58
  br i1 %59, label %60, label %70

60:                                               ; preds = %55
  %61 = load i32, i32* %2, align 4
  %62 = sext i32 %61 to i64
  %63 = getelementptr inbounds [16 x i8], [16 x i8]* %1, i64 0, i64 %62
  %64 = load i8, i8* %63, align 1
  %65 = sext i8 %64 to i32
  %66 = call i32 (i8*, ...) @printf(i8* getelementptr inbounds ([3 x i8], [3 x i8]* @.str, i64 0, i64 0), i32 %65)
  br label %67

67:                                               ; preds = %60
  %68 = load i32, i32* %2, align 4
  %69 = add nsw i32 %68, 1
  store i32 %69, i32* %2, align 4
  br label %55

70:                                               ; preds = %55
  %71 = load i32, i32* %4, align 4
  %72 = add nsw i32 %71, 1
  store i32 %72, i32* %2, align 4
  br label %73

73:                                               ; preds = %84, %70
  %74 = load i32, i32* %2, align 4
  %75 = load i32, i32* %3, align 4
  %76 = icmp sle i32 %74, %75
  br i1 %76, label %77, label %87

77:                                               ; preds = %73
  %78 = load i32, i32* %2, align 4
  %79 = sext i32 %78 to i64
  %80 = getelementptr inbounds [16 x i8], [16 x i8]* %1, i64 0, i64 %79
  %81 = load i8, i8* %80, align 1
  %82 = sext i8 %81 to i32
  %83 = call i32 (i8*, ...) @printf(i8* getelementptr inbounds ([3 x i8], [3 x i8]* @.str, i64 0, i64 0), i32 %82)
  br label %84

84:                                               ; preds = %77
  %85 = load i32, i32* %2, align 4
  %86 = add nsw i32 %85, 1
  store i32 %86, i32* %2, align 4
  br label %73

87:                                               ; preds = %73
  %88 = call i32 (i8*, ...) @printf(i8* getelementptr inbounds ([2 x i8], [2 x i8]* @.str.1, i64 0, i64 0))
  br label %6

89:                                               ; preds = %6
  ret void
}

declare dso_local i32 @gets(...) #1

; Function Attrs: nounwind readonly
declare dso_local i64 @strlen(i8*) #2

declare dso_local i32 @printf(i8*, ...) #1


!llvm.module.flags = !{!0}
!llvm.ident = !{!1}

!0 = !{i32 1, !"wchar_size", i32 4}
!1 = !{!"clang version 10.0.0-4ubuntu1 "}
